target datalayout = "e-m:e-p270:32:32-p271:32:32-p272:64:64-i64:64-i128:128-f80:128-n8:16:32:64-S128"
target triple = "x86_64-pc-linux-gnu"

@.str.7 = private unnamed_addr constant [4 x i8] c"nan\00", align 1
@.str.8 = private unnamed_addr constant [5 x i8] c"-inf\00", align 1
@.str.9 = private unnamed_addr constant [4 x i8] c"inf\00", align 1
@.str.12 = private unnamed_addr constant [7 x i8] c"%.17Lg\00", align 1
@.str.13 = private unnamed_addr constant [4 x i8] c"%La\00", align 1
@.str.14 = private unnamed_addr constant [7 x i8] c"%.17Lf\00", align 1

; Function Attrs: nounwind uwtable
define dso_local i32 @ld2string(ptr noundef %0, i64 noundef %1, x86_fp80 noundef %2, i32 noundef %3) #0 {
  %5 = alloca i32, align 4
  %6 = alloca ptr, align 8
  %7 = alloca i64, align 8
  %8 = alloca x86_fp80, align 16
  %9 = alloca i32, align 4
  %10 = alloca i64, align 8
  %11 = alloca ptr, align 8
  %12 = alloca i32, align 4
  store ptr %0, ptr %6, align 8, !tbaa !5
  store i64 %1, ptr %7, align 8, !tbaa !29
  store x86_fp80 %2, ptr %8, align 16, !tbaa !46
  store i32 %3, ptr %9, align 4, !tbaa !10
  call void @llvm.lifetime.start.p0(i64 8, ptr %10) #13
  store i64 0, ptr %10, align 8, !tbaa !29
  %13 = load x86_fp80, ptr %8, align 16, !tbaa !46
  %14 = call x86_fp80 @llvm.fabs.f80(x86_fp80 %13) #16
  %15 = fcmp oeq x86_fp80 %14, 0xK7FFF8000000000000000
  %16 = bitcast x86_fp80 %13 to i80
  %17 = icmp slt i80 %16, 0
  %18 = select i1 %17, i32 -1, i32 1
  %19 = select i1 %15, i32 %18, i32 0
  %20 = icmp ne i32 %19, 0
  br i1 %20, label %21, label %33

21:                                               ; preds = %4
  %22 = load i64, ptr %7, align 8, !tbaa !29
  %23 = icmp ult i64 %22, 5
  br i1 %23, label %24, label %25

24:                                               ; preds = %21
  br label %135

25:                                               ; preds = %21
  %26 = load x86_fp80, ptr %8, align 16, !tbaa !46
  %27 = fcmp ogt x86_fp80 %26, 0xK00000000000000000000
  br i1 %27, label %28, label %30

28:                                               ; preds = %25
  %29 = load ptr, ptr %6, align 8, !tbaa !5
  call void @llvm.memcpy.p0.p0.i64(ptr align 1 %29, ptr align 1 @.str.9, i64 3, i1 false)
  store i64 3, ptr %10, align 8, !tbaa !29
  br label %32

30:                                               ; preds = %25
  %31 = load ptr, ptr %6, align 8, !tbaa !5
  call void @llvm.memcpy.p0.p0.i64(ptr align 1 %31, ptr align 1 @.str.8, i64 4, i1 false)
  store i64 4, ptr %10, align 8, !tbaa !29
  br label %32

32:                                               ; preds = %30, %28
  br label %129

33:                                               ; preds = %4
  %34 = load x86_fp80, ptr %8, align 16, !tbaa !46
  %35 = call i1 @llvm.is.fpclass.f80(x86_fp80 %34, i32 3)
  br i1 %35, label %36, label %42

36:                                               ; preds = %33
  %37 = load i64, ptr %7, align 8, !tbaa !29
  %38 = icmp ult i64 %37, 4
  br i1 %38, label %39, label %40

39:                                               ; preds = %36
  br label %135

40:                                               ; preds = %36
  %41 = load ptr, ptr %6, align 8, !tbaa !5
  call void @llvm.memcpy.p0.p0.i64(ptr align 1 %41, ptr align 1 @.str.7, i64 3, i1 false)
  store i64 3, ptr %10, align 8, !tbaa !29
  br label %128

42:                                               ; preds = %33
  %43 = load i32, ptr %9, align 4, !tbaa !10
  switch i32 %43, label %126 [
    i32 0, label %44
    i32 2, label %56
    i32 1, label %68
  ]

44:                                               ; preds = %42
  %45 = load ptr, ptr %6, align 8, !tbaa !5
  %46 = load i64, ptr %7, align 8, !tbaa !29
  %47 = load x86_fp80, ptr %8, align 16, !tbaa !46
  %48 = call i32 (ptr, i64, ptr, ...) @snprintf(ptr noundef %45, i64 noundef %46, ptr noundef @.str.12, x86_fp80 noundef %47) #13
  %49 = sext i32 %48 to i64
  store i64 %49, ptr %10, align 8, !tbaa !29
  %50 = load i64, ptr %10, align 8, !tbaa !29
  %51 = add i64 %50, 1
  %52 = load i64, ptr %7, align 8, !tbaa !29
  %53 = icmp ugt i64 %51, %52
  br i1 %53, label %54, label %55

54:                                               ; preds = %44
  br label %135

55:                                               ; preds = %44
  br label %127

56:                                               ; preds = %42
  %57 = load ptr, ptr %6, align 8, !tbaa !5
  %58 = load i64, ptr %7, align 8, !tbaa !29
  %59 = load x86_fp80, ptr %8, align 16, !tbaa !46
  %60 = call i32 (ptr, i64, ptr, ...) @snprintf(ptr noundef %57, i64 noundef %58, ptr noundef @.str.13, x86_fp80 noundef %59) #13
  %61 = sext i32 %60 to i64
  store i64 %61, ptr %10, align 8, !tbaa !29
  %62 = load i64, ptr %10, align 8, !tbaa !29
  %63 = add i64 %62, 1
  %64 = load i64, ptr %7, align 8, !tbaa !29
  %65 = icmp ugt i64 %63, %64
  br i1 %65, label %66, label %67

66:                                               ; preds = %56
  br label %135

67:                                               ; preds = %56
  br label %127

68:                                               ; preds = %42
  %69 = load ptr, ptr %6, align 8, !tbaa !5
  %70 = load i64, ptr %7, align 8, !tbaa !29
  %71 = load x86_fp80, ptr %8, align 16, !tbaa !46
  %72 = call i32 (ptr, i64, ptr, ...) @snprintf(ptr noundef %69, i64 noundef %70, ptr noundef @.str.14, x86_fp80 noundef %71) #13
  %73 = sext i32 %72 to i64
  store i64 %73, ptr %10, align 8, !tbaa !29
  %74 = load i64, ptr %10, align 8, !tbaa !29
  %75 = add i64 %74, 1
  %76 = load i64, ptr %7, align 8, !tbaa !29
  %77 = icmp ugt i64 %75, %76
  br i1 %77, label %78, label %79

78:                                               ; preds = %68
  br label %135

79:                                               ; preds = %68
  %80 = load ptr, ptr %6, align 8, !tbaa !5
  %81 = call ptr @strchr(ptr noundef %80, i32 noundef 46) #15
  %82 = icmp ne ptr %81, null
  br i1 %82, label %83, label %107

83:                                               ; preds = %79
  call void @llvm.lifetime.start.p0(i64 8, ptr %11) #13
  %84 = load ptr, ptr %6, align 8, !tbaa !5
  %85 = load i64, ptr %10, align 8, !tbaa !29
  %86 = getelementptr inbounds nuw i8, ptr %84, i64 %85
  %87 = getelementptr inbounds i8, ptr %86, i64 -1
  store ptr %87, ptr %11, align 8, !tbaa !5
  br label %88

88:                                               ; preds = %93, %83
  %89 = load ptr, ptr %11, align 8, !tbaa !5
  %90 = load i8, ptr %89, align 1, !tbaa !12
  %91 = sext i8 %90 to i32
  %92 = icmp eq i32 %91, 48
  br i1 %92, label %93, label %98

93:                                               ; preds = %88
  %94 = load ptr, ptr %11, align 8, !tbaa !5
  %95 = getelementptr inbounds i8, ptr %94, i32 -1
  store ptr %95, ptr %11, align 8, !tbaa !5
  %96 = load i64, ptr %10, align 8, !tbaa !29
  %97 = add i64 %96, -1
  store i64 %97, ptr %10, align 8, !tbaa !29
  br label %88, !llvm.loop !54

98:                                               ; preds = %88
  %99 = load ptr, ptr %11, align 8, !tbaa !5
  %100 = load i8, ptr %99, align 1, !tbaa !12
  %101 = sext i8 %100 to i32
  %102 = icmp eq i32 %101, 46
  br i1 %102, label %103, label %106

103:                                              ; preds = %98
  %104 = load i64, ptr %10, align 8, !tbaa !29
  %105 = add i64 %104, -1
  store i64 %105, ptr %10, align 8, !tbaa !29
  br label %106

106:                                              ; preds = %103, %98
  call void @llvm.lifetime.end.p0(i64 8, ptr %11) #13
  br label %107

107:                                              ; preds = %106, %79
  %108 = load i64, ptr %10, align 8, !tbaa !29
  %109 = icmp eq i64 %108, 2
  br i1 %109, label %110, label %125

110:                                              ; preds = %107
  %111 = load ptr, ptr %6, align 8, !tbaa !5
  %112 = getelementptr inbounds i8, ptr %111, i64 0
  %113 = load i8, ptr %112, align 1, !tbaa !12
  %114 = sext i8 %113 to i32
  %115 = icmp eq i32 %114, 45
  br i1 %115, label %116, label %125

116:                                              ; preds = %110
  %117 = load ptr, ptr %6, align 8, !tbaa !5
  %118 = getelementptr inbounds i8, ptr %117, i64 1
  %119 = load i8, ptr %118, align 1, !tbaa !12
  %120 = sext i8 %119 to i32
  %121 = icmp eq i32 %120, 48
  br i1 %121, label %122, label %125

122:                                              ; preds = %116
  %123 = load ptr, ptr %6, align 8, !tbaa !5
  %124 = getelementptr inbounds i8, ptr %123, i64 0
  store i8 48, ptr %124, align 1, !tbaa !12
  store i64 1, ptr %10, align 8, !tbaa !29
  br label %125

125:                                              ; preds = %122, %116, %110, %107
  br label %127

126:                                              ; preds = %42
  br label %135

127:                                              ; preds = %125, %67, %55
  br label %128

128:                                              ; preds = %127, %40
  br label %129

129:                                              ; preds = %128, %32
  %130 = load ptr, ptr %6, align 8, !tbaa !5
  %131 = load i64, ptr %10, align 8, !tbaa !29
  %132 = getelementptr inbounds nuw i8, ptr %130, i64 %131
  store i8 0, ptr %132, align 1, !tbaa !12
  %133 = load i64, ptr %10, align 8, !tbaa !29
  %134 = trunc i64 %133 to i32
  store i32 %134, ptr %5, align 4
  store i32 1, ptr %12, align 4
  br label %142

135:                                              ; preds = %126, %78, %66, %54, %39, %24
  %136 = load i64, ptr %7, align 8, !tbaa !29
  %137 = icmp ugt i64 %136, 0
  br i1 %137, label %138, label %141

138:                                              ; preds = %135
  %139 = load ptr, ptr %6, align 8, !tbaa !5
  %140 = getelementptr inbounds i8, ptr %139, i64 0
  store i8 0, ptr %140, align 1, !tbaa !12
  br label %141

141:                                              ; preds = %138, %135
  store i32 0, ptr %5, align 4
  store i32 1, ptr %12, align 4
  br label %142

142:                                              ; preds = %141, %129
  call void @llvm.lifetime.end.p0(i64 8, ptr %10) #13
  %143 = load i32, ptr %5, align 4
  ret i32 %143
}