; Function Attrs: nofree nounwind uwtable
define dso_local i32 @ld2string(ptr noundef %0, i64 noundef %1, x86_fp80 noundef %2, i32 noundef %3) local_unnamed_addr #6 {
  %5 = tail call x86_fp80 @llvm.fabs.f80(x86_fp80 %2) #32
  %6 = fcmp oeq x86_fp80 %5, 0xK7FFF8000000000000000
  br i1 %6, label %7, label %13

7:                                                ; preds = %4
  %8 = icmp ult i64 %1, 5
  br i1 %8, label %56, label %9

9:                                                ; preds = %7
  %10 = fcmp ogt x86_fp80 %2, 0xK00000000000000000000
  br i1 %10, label %11, label %12

11:                                               ; preds = %9
  tail call void @llvm.memcpy.p0.p0.i64(ptr noundef nonnull align 1 dereferenceable(3) %0, ptr noundef nonnull align 1 dereferenceable(3) @.str.9, i64 3, i1 false)
  br label %53

12:                                               ; preds = %9
  store i32 1718511917, ptr %0, align 1
  br label %53

13:                                               ; preds = %4
  %14 = fcmp uno x86_fp80 %2, 0xK00000000000000000000
  br i1 %14, label %15, label %18

15:                                               ; preds = %13
  %16 = icmp ult i64 %1, 4
  br i1 %16, label %56, label %17

17:                                               ; preds = %15
  tail call void @llvm.memcpy.p0.p0.i64(ptr noundef nonnull align 1 dereferenceable(3) %0, ptr noundef nonnull align 1 dereferenceable(3) @.str.7, i64 3, i1 false)
  br label %53

18:                                               ; preds = %13
  switch i32 %3, label %56 [
    i32 0, label %19
    i32 2, label %24
    i32 1, label %29
  ]

19:                                               ; preds = %18
  %20 = tail call i32 (ptr, i64, ptr, ...) @snprintf(ptr noundef %0, i64 noundef %1, ptr noundef nonnull @.str.12, x86_fp80 noundef %2) #29
  %21 = sext i32 %20 to i64
  %22 = add nsw i64 %21, 1
  %23 = icmp ugt i64 %22, %1
  br i1 %23, label %56, label %53

24:                                               ; preds = %18
  %25 = tail call i32 (ptr, i64, ptr, ...) @snprintf(ptr noundef %0, i64 noundef %1, ptr noundef nonnull @.str.13, x86_fp80 noundef %2) #29
  %26 = sext i32 %25 to i64
  %27 = add nsw i64 %26, 1
  %28 = icmp ugt i64 %27, %1
  br i1 %28, label %56, label %53

29:                                               ; preds = %18
  %30 = tail call i32 (ptr, i64, ptr, ...) @snprintf(ptr noundef %0, i64 noundef %1, ptr noundef nonnull @.str.14, x86_fp80 noundef %2) #29
  %31 = sext i32 %30 to i64
  %32 = add nsw i64 %31, 1
  %33 = icmp ugt i64 %32, %1
  br i1 %33, label %56, label %34

34:                                               ; preds = %29
  %35 = tail call ptr @strchr(ptr noundef nonnull dereferenceable(1) %0, i32 noundef 46) #31
  %.not = icmp eq ptr %35, null
  br i1 %.not, label %.loopexit, label %36

36:                                               ; preds = %34
  %37 = getelementptr inbounds nuw i8, ptr %0, i64 %31
  br label %38

38:                                               ; preds = %40, %36
  %.2 = phi i64 [ %31, %36 ], [ %41, %40 ]
  %.pn = phi ptr [ %37, %36 ], [ %.0, %40 ]
  %.0 = getelementptr inbounds i8, ptr %.pn, i64 -1
  %39 = load i8, ptr %.0, align 1, !tbaa !9
  switch i8 %39, label %.loopexit [
    i8 48, label %40
    i8 46, label %42
  ]

40:                                               ; preds = %38
  %41 = add i64 %.2, -1
  br label %38, !llvm.loop !46

42:                                               ; preds = %38
  %43 = add i64 %.2, -1
  br label %.loopexit

.loopexit:                                        ; preds = %38, %42, %34
  %.1 = phi i64 [ %31, %34 ], [ %43, %42 ], [ %.2, %38 ]
  %44 = icmp eq i64 %.1, 2
  br i1 %44, label %45, label %53

45:                                               ; preds = %.loopexit
  %46 = load i8, ptr %0, align 1, !tbaa !9
  %47 = icmp eq i8 %46, 45
  br i1 %47, label %48, label %53

48:                                               ; preds = %45
  %49 = getelementptr inbounds nuw i8, ptr %0, i64 1
  %50 = load i8, ptr %49, align 1, !tbaa !9
  %51 = icmp eq i8 %50, 48
  br i1 %51, label %52, label %53

52:                                               ; preds = %48
  store i8 48, ptr %0, align 1, !tbaa !9
  br label %53

53:                                               ; preds = %17, %.loopexit, %45, %48, %52, %24, %19, %11, %12
  %.041 = phi i64 [ 3, %11 ], [ 4, %12 ], [ 3, %17 ], [ 1, %52 ], [ 2, %48 ], [ 2, %45 ], [ %.1, %.loopexit ], [ %26, %24 ], [ %21, %19 ]
  %54 = getelementptr inbounds nuw i8, ptr %0, i64 %.041
  store i8 0, ptr %54, align 1, !tbaa !9
  %55 = trunc i64 %.041 to i32
  br label %58

56:                                               ; preds = %18, %29, %24, %19, %15, %7
  %.not44 = icmp eq i64 %1, 0
  br i1 %.not44, label %58, label %57

57:                                               ; preds = %56
  store i8 0, ptr %0, align 1, !tbaa !9
  br label %58

58:                                               ; preds = %56, %57, %53
  %.042 = phi i32 [ %55, %53 ], [ 0, %57 ], [ 0, %56 ]
  ret i32 %.042
}